; ModuleID = 'source-C-CXX/29/90.c'
source_filename = "source-C-CXX/29/90.c"
target datalayout = "e-m:e-p270:32:32-p271:32:32-p272:64:64-i64:64-f80:128-n8:16:32:64-S128"
target triple = "x86_64-pc-linux-gnu"

@.str = private unnamed_addr constant [3 x i8] c"%d\00", align 1
@.str.1 = private unnamed_addr constant [4 x i8] c"%d\0A\00", align 1

; Function Attrs: nofree nounwind sspstrong uwtable
define dso_local i32 @main() local_unnamed_addr #0 {
  %1 = alloca i32, align 4
  %2 = bitcast i32* %1 to i8*
  call void @llvm.lifetime.start.p0i8(i64 4, i8* nonnull %2) #3
  %3 = call i32 (i8*, ...) @__isoc99_scanf(i8* getelementptr inbounds ([3 x i8], [3 x i8]* @.str, i64 0, i64 0), i32* nonnull %1)
  %4 = load i32, i32* %1, align 4, !tbaa !5
  %5 = icmp slt i32 %4, 1
  br i1 %5, label %31, label %6

6:                                                ; preds = %0, %27
  %7 = phi i32 [ %28, %27 ], [ 0, %0 ]
  %8 = phi i32 [ %29, %27 ], [ 1, %0 ]
  %9 = urem i32 %8, 7
  %10 = icmp eq i32 %9, 0
  br i1 %10, label %27, label %11

11:                                               ; preds = %6
  %12 = urem i32 %8, 10
  %13 = sub nuw nsw i32 %8, %12
  %14 = sdiv i32 %13, 10
  %15 = srem i32 %14, 10
  %16 = mul nsw i32 %15, -10
  %17 = icmp eq i32 %12, 7
  %18 = icmp eq i32 %15, 7
  %19 = select i1 %17, i1 true, i1 %18
  %20 = add i32 %13, -700
  %21 = add i32 %20, %16
  %22 = icmp ult i32 %21, 100
  %23 = select i1 %19, i1 true, i1 %22
  br i1 %23, label %27, label %24

24:                                               ; preds = %11
  %25 = mul nsw i32 %8, %8
  %26 = add nsw i32 %7, %25
  br label %27

27:                                               ; preds = %11, %6, %24
  %28 = phi i32 [ %7, %6 ], [ %7, %11 ], [ %26, %24 ]
  %29 = add nuw i32 %8, 1
  %30 = icmp eq i32 %8, %4
  br i1 %30, label %31, label %6, !llvm.loop !9

31:                                               ; preds = %27, %0
  %32 = phi i32 [ 0, %0 ], [ %28, %27 ]
  %33 = call i32 (i8*, ...) @printf(i8* nonnull dereferenceable(1) getelementptr inbounds ([4 x i8], [4 x i8]* @.str.1, i64 0, i64 0), i32 %32)
  call void @llvm.lifetime.end.p0i8(i64 4, i8* nonnull %2) #3
  ret i32 0
}

; Function Attrs: argmemonly mustprogress nofree nosync nounwind willreturn
declare void @llvm.lifetime.start.p0i8(i64 immarg, i8* nocapture) #1

; Function Attrs: nofree nounwind
declare noundef i32 @__isoc99_scanf(i8* nocapture noundef readonly, ...) local_unnamed_addr #2

; Function Attrs: nofree nounwind
declare noundef i32 @printf(i8* nocapture noundef readonly, ...) local_unnamed_addr #2

; Function Attrs: argmemonly mustprogress nofree nosync nounwind willreturn
declare void @llvm.lifetime.end.p0i8(i64 immarg, i8* nocapture) #1


!llvm.module.flags = !{!0, !1, !2, !3}
!llvm.ident = !{!4}

!0 = !{i32 1, !"wchar_size", i32 4}
!1 = !{i32 7, !"PIC Level", i32 2}
!2 = !{i32 7, !"PIE Level", i32 2}
!3 = !{i32 7, !"uwtable", i32 1}
!4 = !{!"clang version 13.0.0"}
!5 = !{!6, !6, i64 0}
!6 = !{!"int", !7, i64 0}
!7 = !{!"omnipotent char", !8, i64 0}
!8 = !{!"Simple C/C++ TBAA"}
!9 = distinct !{!9, !10}
!10 = !{!"llvm.loop.mustprogress"}
